; ModuleID = '14/1046.c'
source_filename = "14/1046.c"
target datalayout = "e-m:e-p270:32:32-p271:32:32-p272:64:64-i64:64-f80:128-n8:16:32:64-S128"
target triple = "x86_64-pc-linux-gnu"

%struct.student = type { i32, i32, i32, i32 }

@.str = private unnamed_addr constant [3 x i8] c"%d\00", align 1
@.str.1 = private unnamed_addr constant [9 x i8] c"%d %d %d\00", align 1
@.str.2 = private unnamed_addr constant [7 x i8] c"%d %d\0A\00", align 1

; Function Attrs: noinline nounwind uwtable
define dso_local i32 @main() #0 {
  %1 = alloca i32, align 4
  %2 = alloca [100000 x %struct.student], align 16
  %3 = alloca %struct.student, align 4
  %4 = alloca i32, align 4
  %5 = alloca i32, align 4
  %6 = alloca i32, align 4
  store i32 0, i32* %1, align 4
  %7 = call i32 (i8*, ...) @__isoc99_scanf(i8* getelementptr inbounds ([3 x i8], [3 x i8]* @.str, i64 0, i64 0), i32* %4)
  store i32 0, i32* %5, align 4
  br label %8

8:                                                ; preds = %41, %0
  %9 = load i32, i32* %5, align 4
  %10 = load i32, i32* %4, align 4
  %11 = icmp slt i32 %9, %10
  br i1 %11, label %12, label %44

12:                                               ; preds = %8
  %13 = load i32, i32* %5, align 4
  %14 = sext i32 %13 to i64
  %15 = getelementptr inbounds [100000 x %struct.student], [100000 x %struct.student]* %2, i64 0, i64 %14
  %16 = getelementptr inbounds %struct.student, %struct.student* %15, i32 0, i32 0
  %17 = load i32, i32* %5, align 4
  %18 = sext i32 %17 to i64
  %19 = getelementptr inbounds [100000 x %struct.student], [100000 x %struct.student]* %2, i64 0, i64 %18
  %20 = getelementptr inbounds %struct.student, %struct.student* %19, i32 0, i32 1
  %21 = load i32, i32* %5, align 4
  %22 = sext i32 %21 to i64
  %23 = getelementptr inbounds [100000 x %struct.student], [100000 x %struct.student]* %2, i64 0, i64 %22
  %24 = getelementptr inbounds %struct.student, %struct.student* %23, i32 0, i32 2
  %25 = call i32 (i8*, ...) @__isoc99_scanf(i8* getelementptr inbounds ([9 x i8], [9 x i8]* @.str.1, i64 0, i64 0), i32* %16, i32* %20, i32* %24)
  %26 = load i32, i32* %5, align 4
  %27 = sext i32 %26 to i64
  %28 = getelementptr inbounds [100000 x %struct.student], [100000 x %struct.student]* %2, i64 0, i64 %27
  %29 = getelementptr inbounds %struct.student, %struct.student* %28, i32 0, i32 1
  %30 = load i32, i32* %29, align 4
  %31 = load i32, i32* %5, align 4
  %32 = sext i32 %31 to i64
  %33 = getelementptr inbounds [100000 x %struct.student], [100000 x %struct.student]* %2, i64 0, i64 %32
  %34 = getelementptr inbounds %struct.student, %struct.student* %33, i32 0, i32 2
  %35 = load i32, i32* %34, align 8
  %36 = add nsw i32 %30, %35
  %37 = load i32, i32* %5, align 4
  %38 = sext i32 %37 to i64
  %39 = getelementptr inbounds [100000 x %struct.student], [100000 x %struct.student]* %2, i64 0, i64 %38
  %40 = getelementptr inbounds %struct.student, %struct.student* %39, i32 0, i32 3
  store i32 %36, i32* %40, align 4
  br label %41

41:                                               ; preds = %12
  %42 = load i32, i32* %5, align 4
  %43 = add nsw i32 %42, 1
  store i32 %43, i32* %5, align 4
  br label %8

44:                                               ; preds = %8
  %45 = load i32, i32* %4, align 4
  %46 = sub nsw i32 %45, 1
  store i32 %46, i32* %6, align 4
  br label %47

47:                                               ; preds = %96, %44
  %48 = load i32, i32* %6, align 4
  %49 = load i32, i32* %4, align 4
  %50 = sub nsw i32 %49, 4
  %51 = icmp sgt i32 %48, %50
  br i1 %51, label %52, label %99

52:                                               ; preds = %47
  store i32 0, i32* %5, align 4
  br label %53

53:                                               ; preds = %92, %52
  %54 = load i32, i32* %5, align 4
  %55 = load i32, i32* %6, align 4
  %56 = icmp slt i32 %54, %55
  br i1 %56, label %57, label %95

57:                                               ; preds = %53
  %58 = load i32, i32* %5, align 4
  %59 = sext i32 %58 to i64
  %60 = getelementptr inbounds [100000 x %struct.student], [100000 x %struct.student]* %2, i64 0, i64 %59
  %61 = getelementptr inbounds %struct.student, %struct.student* %60, i32 0, i32 3
  %62 = load i32, i32* %61, align 4
  %63 = load i32, i32* %5, align 4
  %64 = add nsw i32 %63, 1
  %65 = sext i32 %64 to i64
  %66 = getelementptr inbounds [100000 x %struct.student], [100000 x %struct.student]* %2, i64 0, i64 %65
  %67 = getelementptr inbounds %struct.student, %struct.student* %66, i32 0, i32 3
  %68 = load i32, i32* %67, align 4
  %69 = icmp sge i32 %62, %68
  br i1 %69, label %70, label %91

70:                                               ; preds = %57
  %71 = load i32, i32* %5, align 4
  %72 = sext i32 %71 to i64
  %73 = getelementptr inbounds [100000 x %struct.student], [100000 x %struct.student]* %2, i64 0, i64 %72
  %74 = bitcast %struct.student* %3 to i8*
  %75 = bitcast %struct.student* %73 to i8*
  call void @llvm.memcpy.p0i8.p0i8.i64(i8* align 4 %74, i8* align 16 %75, i64 16, i1 false)
  %76 = load i32, i32* %5, align 4
  %77 = sext i32 %76 to i64
  %78 = getelementptr inbounds [100000 x %struct.student], [100000 x %struct.student]* %2, i64 0, i64 %77
  %79 = load i32, i32* %5, align 4
  %80 = add nsw i32 %79, 1
  %81 = sext i32 %80 to i64
  %82 = getelementptr inbounds [100000 x %struct.student], [100000 x %struct.student]* %2, i64 0, i64 %81
  %83 = bitcast %struct.student* %78 to i8*
  %84 = bitcast %struct.student* %82 to i8*
  call void @llvm.memcpy.p0i8.p0i8.i64(i8* align 16 %83, i8* align 16 %84, i64 16, i1 false)
  %85 = load i32, i32* %5, align 4
  %86 = add nsw i32 %85, 1
  %87 = sext i32 %86 to i64
  %88 = getelementptr inbounds [100000 x %struct.student], [100000 x %struct.student]* %2, i64 0, i64 %87
  %89 = bitcast %struct.student* %88 to i8*
  %90 = bitcast %struct.student* %3 to i8*
  call void @llvm.memcpy.p0i8.p0i8.i64(i8* align 16 %89, i8* align 4 %90, i64 16, i1 false)
  br label %91

91:                                               ; preds = %70, %57
  br label %92

92:                                               ; preds = %91
  %93 = load i32, i32* %5, align 4
  %94 = add nsw i32 %93, 1
  store i32 %94, i32* %5, align 4
  br label %53

95:                                               ; preds = %53
  br label %96

96:                                               ; preds = %95
  %97 = load i32, i32* %6, align 4
  %98 = add nsw i32 %97, -1
  store i32 %98, i32* %6, align 4
  br label %47

99:                                               ; preds = %47
  %100 = load i32, i32* %4, align 4
  %101 = sub nsw i32 %100, 1
  %102 = sext i32 %101 to i64
  %103 = getelementptr inbounds [100000 x %struct.student], [100000 x %struct.student]* %2, i64 0, i64 %102
  %104 = getelementptr inbounds %struct.student, %struct.student* %103, i32 0, i32 0
  %105 = load i32, i32* %104, align 16
  %106 = load i32, i32* %4, align 4
  %107 = sub nsw i32 %106, 1
  %108 = sext i32 %107 to i64
  %109 = getelementptr inbounds [100000 x %struct.student], [100000 x %struct.student]* %2, i64 0, i64 %108
  %110 = getelementptr inbounds %struct.student, %struct.student* %109, i32 0, i32 3
  %111 = load i32, i32* %110, align 4
  %112 = call i32 (i8*, ...) @printf(i8* getelementptr inbounds ([7 x i8], [7 x i8]* @.str.2, i64 0, i64 0), i32 %105, i32 %111)
  %113 = load i32, i32* %4, align 4
  %114 = sub nsw i32 %113, 2
  %115 = sext i32 %114 to i64
  %116 = getelementptr inbounds [100000 x %struct.student], [100000 x %struct.student]* %2, i64 0, i64 %115
  %117 = getelementptr inbounds %struct.student, %struct.student* %116, i32 0, i32 0
  %118 = load i32, i32* %117, align 16
  %119 = load i32, i32* %4, align 4
  %120 = sub nsw i32 %119, 2
  %121 = sext i32 %120 to i64
  %122 = getelementptr inbounds [100000 x %struct.student], [100000 x %struct.student]* %2, i64 0, i64 %121
  %123 = getelementptr inbounds %struct.student, %struct.student* %122, i32 0, i32 3
  %124 = load i32, i32* %123, align 4
  %125 = call i32 (i8*, ...) @printf(i8* getelementptr inbounds ([7 x i8], [7 x i8]* @.str.2, i64 0, i64 0), i32 %118, i32 %124)
  %126 = load i32, i32* %4, align 4
  %127 = sub nsw i32 %126, 3
  %128 = sext i32 %127 to i64
  %129 = getelementptr inbounds [100000 x %struct.student], [100000 x %struct.student]* %2, i64 0, i64 %128
  %130 = getelementptr inbounds %struct.student, %struct.student* %129, i32 0, i32 0
  %131 = load i32, i32* %130, align 16
  %132 = load i32, i32* %4, align 4
  %133 = sub nsw i32 %132, 3
  %134 = sext i32 %133 to i64
  %135 = getelementptr inbounds [100000 x %struct.student], [100000 x %struct.student]* %2, i64 0, i64 %134
  %136 = getelementptr inbounds %struct.student, %struct.student* %135, i32 0, i32 3
  %137 = load i32, i32* %136, align 4
  %138 = call i32 (i8*, ...) @printf(i8* getelementptr inbounds ([7 x i8], [7 x i8]* @.str.2, i64 0, i64 0), i32 %131, i32 %137)
  ret i32 0
}

declare dso_local i32 @__isoc99_scanf(i8*, ...) #1

; Function Attrs: argmemonly nounwind willreturn
declare void @llvm.memcpy.p0i8.p0i8.i64(i8* noalias nocapture writeonly, i8* noalias nocapture readonly, i64, i1 immarg) #2

declare dso_local i32 @printf(i8*, ...) #1


!llvm.module.flags = !{!0}
!llvm.ident = !{!1}

!0 = !{i32 1, !"wchar_size", i32 4}
!1 = !{!"clang version 10.0.0-4ubuntu1 "}
